; Function Attrs: mustprogress nounwind uwtable
define internal fastcc void @_ZN8pybind116detail15argument_loaderIJPKdNS_7array_tIdLi16EEES5_NS4_IiLi16EEERiZ30test_submodule_numpy_vectorizeRNS_7module_EE11NonPODClassS5_EED2Ev(ptr nocapture noundef nonnull readonly align 8 dereferenceable(72) %0) unnamed_addr #0 align 2 personality ptr @__gxx_personality_v0 {
  %2 = getelementptr inbounds i8, ptr %0, i64 56
  %3 = load ptr, ptr %2, align 8
  %.not.i.i.i.i.i.i.i.i.i.i.i.i = icmp eq ptr %3, null
  br i1 %.not.i.i.i.i.i.i.i.i.i.i.i.i, label %_ZNSt5tupleIJN8pybind116detail11type_casterIdvEENS2_INS0_7array_tIdLi16EEEvEES6_NS2_INS4_IiLi16EEEvEENS2_IivEENS2_IZ30test_submodule_numpy_vectorizeRNS0_7module_EE11NonPODClassvEES6_EED2Ev.exit, label %4

4:                                                ; preds = %1
  %5 = load i64, ptr %3, align 8
  %6 = add nsw i64 %5, -1
  store i64 %6, ptr %3, align 8
  %.not.i.i.i.i.i.i.i.i.i.i.i.i.i = icmp eq i64 %6, 0
  br i1 %.not.i.i.i.i.i.i.i.i.i.i.i.i.i, label %7, label %_ZNSt5tupleIJN8pybind116detail11type_casterIdvEENS2_INS0_7array_tIdLi16EEEvEES6_NS2_INS4_IiLi16EEEvEENS2_IivEENS2_IZ30test_submodule_numpy_vectorizeRNS0_7module_EE11NonPODClassvEES6_EED2Ev.exit

7:                                                ; preds = %4
  invoke void @_Py_Dealloc(ptr noundef nonnull %3)
          to label %_ZNSt5tupleIJN8pybind116detail11type_casterIdvEENS2_INS0_7array_tIdLi16EEEvEES6_NS2_INS4_IiLi16EEEvEENS2_IivEENS2_IZ30test_submodule_numpy_vectorizeRNS0_7module_EE11NonPODClassvEES6_EED2Ev.exit unwind label %8

8:                                                ; preds = %7
  %9 = landingpad { ptr, i32 }
          catch ptr null
  %10 = extractvalue { ptr, i32 } %9, 0
  tail call void @__clang_call_terminate(ptr %10) #26
  unreachable

_ZNSt5tupleIJN8pybind116detail11type_casterIdvEENS2_INS0_7array_tIdLi16EEEvEES6_NS2_INS4_IiLi16EEEvEENS2_IivEENS2_IZ30test_submodule_numpy_vectorizeRNS0_7module_EE11NonPODClassvEES6_EED2Ev.exit: ; preds = %1, %4, %7
  tail call fastcc void @_ZNSt11_Tuple_implILm2EJN8pybind116detail11type_casterINS0_7array_tIdLi16EEEvEENS2_INS3_IiLi16EEEvEENS2_IivEENS2_IZ30test_submodule_numpy_vectorizeRNS0_7module_EE11NonPODClassvEES5_EED2Ev(ptr noundef nonnull align 8 dereferenceable(56) %0) #25
  ret void
}